target datalayout = "e-m:e-p270:32:32-p271:32:32-p272:64:64-i64:64-i128:128-f80:128-n8:16:32:64-S128"
target triple = "x86_64-pc-linux-gnu"

; Function Attrs: alwaysinline nounwind
define internal ptr @memcpy.inline(ptr noalias %0, ptr noalias %1, i64 %2) #13 {
  %4 = alloca ptr, align 8
  %5 = alloca ptr, align 8
  %6 = alloca i64, align 8
  store ptr %0, ptr %4, align 8
  store ptr %1, ptr %5, align 8
  store i64 %2, ptr %6, align 8
  %7 = load ptr, ptr %4, align 8
  %8 = load ptr, ptr %5, align 8
  %9 = load i64, ptr %6, align 8
  %10 = load ptr, ptr %4, align 8
  %11 = call i64 @llvm.objectsize.i64.p0(ptr %10, i1 false, i1 true, i1 true)
  %12 = call ptr @__memcpy_chk(ptr noundef %7, ptr noundef %8, i64 noundef %9, i64 noundef %11) #17
  ret ptr %12
}

; Function Attrs: nounwind null_pointer_is_valid sspstrong uwtable
define internal i32 @get_ipv6_suffix(ptr noundef %0, ptr noundef %1) #12 {
  %3 = alloca ptr, align 8
  %4 = alloca ptr, align 8
  %5 = alloca [33 x i8], align 16
  %6 = alloca i32, align 4
  %7 = alloca i32, align 4
  %8 = alloca i32, align 4
  %9 = alloca i32, align 4
  %10 = alloca i32, align 4
  %11 = alloca i8, align 1
  store ptr %0, ptr %3, align 8
  store ptr %1, ptr %4, align 8
  call void @llvm.lifetime.start.p0(i64 33, ptr %5) #17
  call void @llvm.lifetime.start.p0(i64 4, ptr %6) #17
  store i32 0, ptr %6, align 4
  call void @llvm.lifetime.start.p0(i64 4, ptr %7) #17
  store i32 0, ptr %7, align 4
  call void @llvm.lifetime.start.p0(i64 4, ptr %8) #17
  store i32 0, ptr %8, align 4
  call void @llvm.lifetime.start.p0(i64 4, ptr %9) #17
  store i32 0, ptr %9, align 4
  call void @llvm.lifetime.start.p0(i64 4, ptr %10) #17
  store i32 0, ptr %10, align 4
  call void @llvm.lifetime.start.p0(i64 1, ptr %11) #17
  store i8 0, ptr %11, align 1
  %12 = load ptr, ptr %4, align 8
  %13 = call i64 @strlen(ptr noundef %12) #21
  %14 = trunc i64 %13 to i32
  store i32 %14, ptr %10, align 4
  %15 = load i32, ptr %10, align 4
  %16 = icmp ne i32 %15, 0
  br i1 %16, label %17, label %128

17:                                               ; preds = %2
  br label %18

18:                                               ; preds = %106, %17
  %19 = load i32, ptr %7, align 4
  %20 = icmp slt i32 %19, 32
  br i1 %20, label %21, label %32

21:                                               ; preds = %18
  %22 = load i32, ptr %10, align 4
  %23 = load i32, ptr %6, align 4
  %24 = sub i32 %22, %23
  %25 = sub i32 %24, 1
  %26 = icmp sge i32 %25, 0
  br i1 %26, label %27, label %32

27:                                               ; preds = %21
  %28 = load i8, ptr %11, align 1, !range !6, !noundef !7
  %29 = trunc i8 %28 to i1
  %30 = zext i1 %29 to i32
  %31 = icmp eq i32 %30, 0
  br label %32

32:                                               ; preds = %27, %21, %18
  %33 = phi i1 [ false, %21 ], [ false, %18 ], [ %31, %27 ]
  br i1 %33, label %34, label %107

34:                                               ; preds = %32
  %35 = load ptr, ptr %4, align 8
  %36 = load i32, ptr %10, align 4
  %37 = load i32, ptr %6, align 4
  %38 = sub i32 %36, %37
  %39 = sub i32 %38, 1
  %40 = sext i32 %39 to i64
  %41 = getelementptr i8, ptr %35, i64 %40
  %42 = load i8, ptr %41, align 1
  %43 = sext i8 %42 to i32
  %44 = icmp eq i32 %43, 58
  br i1 %44, label %45, label %86

45:                                               ; preds = %34
  %46 = load i32, ptr %8, align 4
  store i32 %46, ptr %9, align 4
  br label %47

47:                                               ; preds = %57, %45
  %48 = load i32, ptr %9, align 4
  %49 = icmp slt i32 %48, 4
  br i1 %49, label %50, label %60

50:                                               ; preds = %47
  %51 = load i32, ptr %7, align 4
  %52 = sub i32 31, %51
  %53 = sext i32 %52 to i64
  %54 = getelementptr [33 x i8], ptr %5, i64 0, i64 %53
  store i8 48, ptr %54, align 1
  %55 = load i32, ptr %7, align 4
  %56 = add i32 %55, 1
  store i32 %56, ptr %7, align 4
  br label %57

57:                                               ; preds = %50
  %58 = load i32, ptr %9, align 4
  %59 = add i32 %58, 1
  store i32 %59, ptr %9, align 4
  br label %47, !llvm.loop !36

60:                                               ; preds = %47
  store i32 0, ptr %8, align 4
  %61 = load i32, ptr %10, align 4
  %62 = load i32, ptr %6, align 4
  %63 = sub i32 %61, %62
  %64 = sub i32 %63, 1
  %65 = icmp eq i32 %64, 0
  br i1 %65, label %66, label %67

66:                                               ; preds = %60
  store i8 1, ptr %11, align 1
  br label %85

67:                                               ; preds = %60
  %68 = load ptr, ptr %4, align 8
  %69 = load i32, ptr %10, align 4
  %70 = load i32, ptr %6, align 4
  %71 = sub i32 %69, %70
  %72 = sub i32 %71, 2
  %73 = sext i32 %72 to i64
  %74 = getelementptr i8, ptr %68, i64 %73
  %75 = load i8, ptr %74, align 1
  %76 = sext i8 %75 to i32
  %77 = icmp eq i32 %76, 58
  br i1 %77, label %78, label %81

78:                                               ; preds = %67
  %79 = load i32, ptr %6, align 4
  %80 = add i32 %79, 2
  store i32 %80, ptr %6, align 4
  store i8 1, ptr %11, align 1
  br label %84

81:                                               ; preds = %67
  %82 = load i32, ptr %6, align 4
  %83 = add i32 %82, 1
  store i32 %83, ptr %6, align 4
  br label %84

84:                                               ; preds = %81, %78
  br label %85

85:                                               ; preds = %84, %66
  br label %106

86:                                               ; preds = %34
  %87 = load ptr, ptr %4, align 8
  %88 = load i32, ptr %10, align 4
  %89 = load i32, ptr %6, align 4
  %90 = sub i32 %88, %89
  %91 = sub i32 %90, 1
  %92 = sext i32 %91 to i64
  %93 = getelementptr i8, ptr %87, i64 %92
  %94 = load i8, ptr %93, align 1
  %95 = call signext i8 @g_ascii_toupper(i8 noundef signext %94) #24
  %96 = load i32, ptr %7, align 4
  %97 = sub i32 31, %96
  %98 = sext i32 %97 to i64
  %99 = getelementptr [33 x i8], ptr %5, i64 0, i64 %98
  store i8 %95, ptr %99, align 1
  %100 = load i32, ptr %8, align 4
  %101 = add i32 %100, 1
  store i32 %101, ptr %8, align 4
  %102 = load i32, ptr %7, align 4
  %103 = add i32 %102, 1
  store i32 %103, ptr %7, align 4
  %104 = load i32, ptr %6, align 4
  %105 = add i32 %104, 1
  store i32 %105, ptr %6, align 4
  br label %106

106:                                              ; preds = %86, %85
  br label %18, !llvm.loop !37

107:                                              ; preds = %32
  %108 = load i32, ptr %7, align 4
  %109 = srem i32 %108, 4
  %110 = icmp ne i32 %109, 0
  br i1 %110, label %111, label %127

111:                                              ; preds = %107
  %112 = load i32, ptr %8, align 4
  store i32 %112, ptr %9, align 4
  br label %113

113:                                              ; preds = %123, %111
  %114 = load i32, ptr %9, align 4
  %115 = icmp slt i32 %114, 4
  br i1 %115, label %116, label %126

116:                                              ; preds = %113
  %117 = load i32, ptr %7, align 4
  %118 = sub i32 31, %117
  %119 = sext i32 %118 to i64
  %120 = getelementptr [33 x i8], ptr %5, i64 0, i64 %119
  store i8 48, ptr %120, align 1
  %121 = load i32, ptr %7, align 4
  %122 = add i32 %121, 1
  store i32 %122, ptr %7, align 4
  br label %123

123:                                              ; preds = %116
  %124 = load i32, ptr %9, align 4
  %125 = add i32 %124, 1
  store i32 %125, ptr %9, align 4
  br label %113, !llvm.loop !38

126:                                              ; preds = %113
  br label %127

127:                                              ; preds = %126, %107
  br label %128

128:                                              ; preds = %127, %2
  store i32 0, ptr %9, align 4
  br label %129

129:                                              ; preds = %144, %128
  %130 = load i32, ptr %9, align 4
  %131 = load i32, ptr %7, align 4
  %132 = icmp slt i32 %130, %131
  br i1 %132, label %133, label %147

133:                                              ; preds = %129
  %134 = load i32, ptr %9, align 4
  %135 = add i32 %134, 32
  %136 = load i32, ptr %7, align 4
  %137 = sub i32 %135, %136
  %138 = sext i32 %137 to i64
  %139 = getelementptr [33 x i8], ptr %5, i64 0, i64 %138
  %140 = load i8, ptr %139, align 1
  %141 = load i32, ptr %9, align 4
  %142 = sext i32 %141 to i64
  %143 = getelementptr [33 x i8], ptr %5, i64 0, i64 %142
  store i8 %140, ptr %143, align 1
  br label %144

144:                                              ; preds = %133
  %145 = load i32, ptr %9, align 4
  %146 = add i32 %145, 1
  store i32 %146, ptr %9, align 4
  br label %129, !llvm.loop !39

147:                                              ; preds = %129
  %148 = load i32, ptr %9, align 4
  %149 = sext i32 %148 to i64
  %150 = getelementptr [33 x i8], ptr %5, i64 0, i64 %149
  store i8 0, ptr %150, align 1
  %151 = load ptr, ptr %3, align 8
  %152 = getelementptr inbounds [33 x i8], ptr %5, i64 0, i64 0
  %153 = load i32, ptr %9, align 4
  %154 = add i32 %153, 1
  %155 = sext i32 %154 to i64
  %156 = call ptr @memcpy.inline(ptr noundef %151, ptr noundef %152, i64 noundef %155) #17
  %157 = load i32, ptr %6, align 4
  call void @llvm.lifetime.end.p0(i64 1, ptr %11) #17
  call void @llvm.lifetime.end.p0(i64 4, ptr %10) #17
  call void @llvm.lifetime.end.p0(i64 4, ptr %9) #17
  call void @llvm.lifetime.end.p0(i64 4, ptr %8) #17
  call void @llvm.lifetime.end.p0(i64 4, ptr %7) #17
  call void @llvm.lifetime.end.p0(i64 4, ptr %6) #17
  call void @llvm.lifetime.end.p0(i64 33, ptr %5) #17
  ret i32 %157
}