; Function Attrs: nofree nounwind null_pointer_is_valid sspstrong memory(argmem: readwrite) uwtable
define internal fastcc i32 @get_ipv6_suffix(ptr noundef %0, ptr noundef readonly captures(none) %1) unnamed_addr #14 {
  %3 = alloca [33 x i8], align 16
  call void @llvm.lifetime.start.p0(i64 33, ptr nonnull %3) #20
  %4 = tail call i64 @strlen(ptr noundef %1) #22
  %5 = trunc i64 %4 to i32
  %.not = icmp eq i32 %5, 0
  br i1 %.not, label %._crit_edge71, label %.preheader57

.preheader57:                                     ; preds = %2, %41
  %.063 = phi i8 [ %.1, %41 ], [ 0, %2 ]
  %.04562 = phi i32 [ %.146, %41 ], [ 0, %2 ]
  %.14861 = phi i32 [ %.3, %41 ], [ 0, %2 ]
  %.15160 = phi i32 [ %.252, %41 ], [ 0, %2 ]
  %6 = sub i32 %5, %.15160
  %7 = add i32 %6, -1
  %8 = icmp sgt i32 %7, -1
  %9 = icmp eq i8 %.063, 0
  %or.cond = and i1 %8, %9
  br i1 %or.cond, label %10, label %.critedge

10:                                               ; preds = %.preheader57
  %11 = zext nneg i32 %7 to i64
  %12 = getelementptr i8, ptr %1, i64 %11
  %13 = load i8, ptr %12, align 1
  %14 = icmp eq i8 %13, 58
  br i1 %14, label %.preheader56, label %33

.preheader56:                                     ; preds = %10
  %15 = icmp slt i32 %.04562, 4
  br i1 %15, label %.lr.ph.preheader, label %._crit_edge

.lr.ph.preheader:                                 ; preds = %.preheader56
  %16 = add nsw i32 %.14861, 4
  %17 = sub i32 %16, %.04562
  br label %.lr.ph

.lr.ph:                                           ; preds = %.lr.ph.preheader, %.lr.ph
  %.24958 = phi i32 [ %21, %.lr.ph ], [ %.14861, %.lr.ph.preheader ]
  %18 = sub i32 31, %.24958
  %19 = sext i32 %18 to i64
  %20 = getelementptr [33 x i8], ptr %3, i64 0, i64 %19
  store i8 48, ptr %20, align 1
  %21 = add i32 %.24958, 1
  %exitcond.not = icmp eq i32 %21, %17
  br i1 %exitcond.not, label %._crit_edge, label %.lr.ph, !llvm.loop !54

._crit_edge:                                      ; preds = %.lr.ph, %.preheader56
  %.249.lcssa = phi i32 [ %.14861, %.preheader56 ], [ %17, %.lr.ph ]
  %22 = icmp eq i32 %7, 0
  br i1 %22, label %41, label %23

23:                                               ; preds = %._crit_edge
  %24 = add i32 %6, -2
  %25 = sext i32 %24 to i64
  %26 = getelementptr i8, ptr %1, i64 %25
  %27 = load i8, ptr %26, align 1
  %28 = icmp eq i8 %27, 58
  br i1 %28, label %29, label %31

29:                                               ; preds = %23
  %30 = add i32 %.15160, 2
  br label %41

31:                                               ; preds = %23
  %32 = add i32 %.15160, 1
  br label %41

33:                                               ; preds = %10
  %34 = tail call signext i8 @g_ascii_toupper(i8 noundef signext %13) #25
  %35 = sub i32 31, %.14861
  %36 = sext i32 %35 to i64
  %37 = getelementptr [33 x i8], ptr %3, i64 0, i64 %36
  store i8 %34, ptr %37, align 1
  %38 = add i32 %.04562, 1
  %39 = add nsw i32 %.14861, 1
  %40 = add i32 %.15160, 1
  br label %41

41:                                               ; preds = %._crit_edge, %31, %29, %33
  %.252 = phi i32 [ %30, %29 ], [ %32, %31 ], [ %40, %33 ], [ %.15160, %._crit_edge ]
  %.3 = phi i32 [ %.249.lcssa, %29 ], [ %.249.lcssa, %31 ], [ %39, %33 ], [ %.249.lcssa, %._crit_edge ]
  %.146 = phi i32 [ 0, %29 ], [ 0, %31 ], [ %38, %33 ], [ 0, %._crit_edge ]
  %.1 = phi i8 [ 1, %29 ], [ 0, %31 ], [ 0, %33 ], [ 1, %._crit_edge ]
  %42 = icmp slt i32 %.3, 32
  br i1 %42, label %.preheader57, label %.critedge, !llvm.loop !55

.critedge:                                        ; preds = %.preheader57, %41
  %.151.lcssa = phi i32 [ %.15160, %.preheader57 ], [ %.252, %41 ]
  %.148.lcssa = phi i32 [ %.14861, %.preheader57 ], [ %.3, %41 ]
  %.045.lcssa = phi i32 [ %.04562, %.preheader57 ], [ %.146, %41 ]
  %43 = and i32 %.148.lcssa, 3
  %.not54 = icmp ne i32 %43, 0
  %44 = icmp slt i32 %.045.lcssa, 4
  %or.cond73 = select i1 %.not54, i1 %44, i1 false
  br i1 %or.cond73, label %.lr.ph66, label %.loopexit

.lr.ph66:                                         ; preds = %.critedge, %.lr.ph66
  %.14465 = phi i32 [ %49, %.lr.ph66 ], [ %.045.lcssa, %.critedge ]
  %.464 = phi i32 [ %48, %.lr.ph66 ], [ %.148.lcssa, %.critedge ]
  %45 = sub i32 31, %.464
  %46 = sext i32 %45 to i64
  %47 = getelementptr [33 x i8], ptr %3, i64 0, i64 %46
  store i8 48, ptr %47, align 1
  %48 = add i32 %.464, 1
  %49 = add i32 %.14465, 1
  %exitcond76.not = icmp eq i32 %49, 4
  br i1 %exitcond76.not, label %.loopexit, label %.lr.ph66, !llvm.loop !56

.loopexit:                                        ; preds = %.lr.ph66, %.critedge
  %.047 = phi i32 [ %.148.lcssa, %.critedge ], [ %48, %.lr.ph66 ]
  %50 = icmp sgt i32 %.047, 0
  br i1 %50, label %.lr.ph70, label %._crit_edge71

.lr.ph70:                                         ; preds = %.loopexit
  %wide.trip.count = zext nneg i32 %.047 to i64
  br label %51

51:                                               ; preds = %.lr.ph70, %51
  %indvars.iv = phi i64 [ 0, %.lr.ph70 ], [ %indvars.iv.next, %51 ]
  %52 = trunc i64 %indvars.iv to i32
  %53 = sub i32 %52, %.047
  %54 = add i32 %53, 32
  %55 = sext i32 %54 to i64
  %56 = getelementptr [33 x i8], ptr %3, i64 0, i64 %55
  %57 = load i8, ptr %56, align 1
  %58 = getelementptr [33 x i8], ptr %3, i64 0, i64 %indvars.iv
  store i8 %57, ptr %58, align 1
  %indvars.iv.next = add nuw nsw i64 %indvars.iv, 1
  %exitcond79.not = icmp eq i64 %indvars.iv.next, %wide.trip.count
  br i1 %exitcond79.not, label %._crit_edge71, label %51, !llvm.loop !57

._crit_edge71:                                    ; preds = %51, %2, %.loopexit
  %.05082 = phi i32 [ %.151.lcssa, %.loopexit ], [ 0, %2 ], [ %.151.lcssa, %51 ]
  %.2.lcssa = phi i32 [ 0, %.loopexit ], [ 0, %2 ], [ %.047, %51 ]
  %59 = zext nneg i32 %.2.lcssa to i64
  %60 = getelementptr [33 x i8], ptr %3, i64 0, i64 %59
  store i8 0, ptr %60, align 1
  %61 = add nuw i32 %.2.lcssa, 1
  %62 = sext i32 %61 to i64
  call void @llvm.memcpy.p0.p0.i64(ptr noundef align 1 %0, ptr noundef nonnull align 16 dereferenceable(1) %3, i64 noundef range(i64 -2147483648, 2147483648) %62, i1 noundef false) #20
  call void @llvm.lifetime.end.p0(i64 33, ptr nonnull %3) #20
  ret i32 %.05082
}